; Function Attrs: mustprogress uwtable
define noundef i64 @_ZNK7rocksdb9cassandra8RowValue4SizeEv(ptr noundef nonnull readonly align 8 captures(none) dereferenceable(48) %0) local_unnamed_addr #3 align 2 {
  %2 = getelementptr inbounds nuw i8, ptr %0, i64 16
  %3 = load ptr, ptr %2, align 8, !tbaa !99
  %4 = getelementptr inbounds nuw i8, ptr %0, i64 24
  %5 = load ptr, ptr %4, align 8, !tbaa !99
  %.not8 = icmp eq ptr %3, %5
  br i1 %.not8, label %._crit_edge, label %.lr.ph

._crit_edge:                                      ; preds = %.lr.ph, %1
  %.0.lcssa = phi i64 [ 12, %1 ], [ %11, %.lr.ph ]
  ret i64 %.0.lcssa

.lr.ph:                                           ; preds = %1, %.lr.ph
  %.010 = phi i64 [ %11, %.lr.ph ], [ 12, %1 ]
  %.sroa.05.09 = phi ptr [ %12, %.lr.ph ], [ %3, %1 ]
  %6 = load ptr, ptr %.sroa.05.09, align 8, !tbaa !44
  %7 = load ptr, ptr %6, align 8, !tbaa !4
  %8 = getelementptr inbounds nuw i8, ptr %7, i64 40
  %9 = load ptr, ptr %8, align 8
  %10 = tail call noundef i64 %9(ptr noundef nonnull align 8 dereferenceable(10) %6)
  %11 = add i64 %10, %.010
  %12 = getelementptr inbounds nuw i8, ptr %.sroa.05.09, i64 16
  %.not = icmp eq ptr %12, %5
  br i1 %.not, label %._crit_edge, label %.lr.ph
}